target datalayout = "e-m:e-p270:32:32-p271:32:32-p272:64:64-i64:64-i128:128-f80:128-n8:16:32:64-S128"
target triple = "x86_64-pc-linux-gnu"

%struct.RBasic = type { i64, i64 }

@.str = private unnamed_addr constant [10 x i8] c"../hash.c\00", align 1

; Function Attrs: inlinehint nounwind sspstrong willreturn memory(read) uwtable
define internal i64 @RB_FL_TEST_RAW(i64 noundef %0, i64 noundef %1) #4 {
  %3 = alloca i64, align 8
  %4 = alloca i64, align 8
  store i64 %0, ptr %3, align 8, !tbaa !7
  store i64 %1, ptr %4, align 8, !tbaa !7
  %5 = load i64, ptr %3, align 8, !tbaa !7
  %6 = inttoptr i64 %5 to ptr
  %7 = getelementptr inbounds nuw %struct.RBasic, ptr %6, i32 0, i32 0
  %8 = load i64, ptr %7, align 8, !tbaa !64
  %9 = load i64, ptr %4, align 8, !tbaa !7
  %10 = and i64 %8, %9
  ret i64 %10
}

; Function Attrs: inlinehint nounwind sspstrong uwtable
define internal nonnull ptr @RHASH_ST_TABLE(i64 noundef %0) #2 {
  %2 = alloca i64, align 8
  store i64 %0, ptr %2, align 8, !tbaa !7
  %3 = load i64, ptr %2, align 8, !tbaa !7
  %4 = add i64 %3, 24
  %5 = inttoptr i64 %4 to ptr
  ret ptr %5
}

; Function Attrs: inlinehint nounwind sspstrong uwtable
define internal zeroext i1 @RHASH_AR_TABLE_P(i64 noundef %0) #2 {
  %2 = alloca i64, align 8
  store i64 %0, ptr %2, align 8, !tbaa !7
  %3 = load i64, ptr %2, align 8, !tbaa !7
  %4 = call i64 @RB_FL_TEST_RAW(i64 noundef %3, i64 noundef 32768) #26
  %5 = icmp ne i64 %4, 0
  %6 = xor i1 %5, true
  ret i1 %6
}

; Function Attrs: nounwind sspstrong uwtable
define hidden i32 @rb_hash_stlike_update(i64 noundef %0, i64 noundef %1, ptr noundef %2, i64 noundef %3) #0 {
  %5 = alloca i32, align 4
  %6 = alloca i64, align 8
  %7 = alloca i64, align 8
  %8 = alloca ptr, align 8
  %9 = alloca i64, align 8
  %10 = alloca i32, align 4
  %11 = alloca i32, align 4
  store i64 %0, ptr %6, align 8, !tbaa !7
  store i64 %1, ptr %7, align 8, !tbaa !7
  store ptr %2, ptr %8, align 8, !tbaa !23
  store i64 %3, ptr %9, align 8, !tbaa !7
  %12 = load i64, ptr %6, align 8, !tbaa !7
  %13 = call zeroext i1 @RHASH_AR_TABLE_P(i64 noundef %12)
  br i1 %13, label %14, label %31

14:                                               ; preds = %4
  call void @llvm.lifetime.start.p0(i64 4, ptr %10) #28
  %15 = load i64, ptr %6, align 8, !tbaa !7
  %16 = load i64, ptr %7, align 8, !tbaa !7
  %17 = load ptr, ptr %8, align 8, !tbaa !23
  %18 = load i64, ptr %9, align 8, !tbaa !7
  %19 = call i32 @ar_update(i64 noundef %15, i64 noundef %16, ptr noundef %17, i64 noundef %18)
  store i32 %19, ptr %10, align 4, !tbaa !16
  %20 = load i32, ptr %10, align 4, !tbaa !16
  %21 = icmp eq i32 %20, -1
  br i1 %21, label %22, label %25

22:                                               ; preds = %14
  %23 = load i64, ptr %6, align 8, !tbaa !7
  %24 = call ptr @ar_force_convert_table(i64 noundef %23, ptr noundef @.str, i32 noundef 1679)
  br label %27

25:                                               ; preds = %14
  %26 = load i32, ptr %10, align 4, !tbaa !16
  store i32 %26, ptr %5, align 4
  store i32 1, ptr %11, align 4
  br label %28

27:                                               ; preds = %22
  store i32 0, ptr %11, align 4
  br label %28

28:                                               ; preds = %27, %25
  call void @llvm.lifetime.end.p0(i64 4, ptr %10) #28
  %29 = load i32, ptr %11, align 4
  switch i32 %29, label %40 [
    i32 0, label %30
    i32 1, label %38
  ]

30:                                               ; preds = %28
  br label %31

31:                                               ; preds = %30, %4
  %32 = load i64, ptr %6, align 8, !tbaa !7
  %33 = call nonnull ptr @RHASH_ST_TABLE(i64 noundef %32)
  %34 = load i64, ptr %7, align 8, !tbaa !7
  %35 = load ptr, ptr %8, align 8, !tbaa !23
  %36 = load i64, ptr %9, align 8, !tbaa !7
  %37 = call i32 @rb_st_update(ptr noundef %33, i64 noundef %34, ptr noundef %35, i64 noundef %36)
  store i32 %37, ptr %5, align 4
  br label %38

38:                                               ; preds = %31, %28
  %39 = load i32, ptr %5, align 4
  ret i32 %39

40:                                               ; preds = %28
  unreachable
}