; Function Attrs: nounwind sspstrong uwtable
define hidden i32 @rb_hash_stlike_update(i64 noundef %0, i64 noundef %1, ptr noundef %2, i64 noundef %3) local_unnamed_addr #0 {
  %5 = inttoptr i64 %0 to ptr
  %6 = load i64, ptr %5, align 8, !tbaa !11
  %7 = and i64 %6, 32768
  %.not.i = icmp eq i64 %7, 0
  br i1 %.not.i, label %8, label %11

8:                                                ; preds = %4
  %9 = tail call fastcc i32 @ar_update(i64 noundef %0, i64 noundef %1, ptr noundef %2, i64 noundef %3)
  %.not = icmp eq i32 %9, -1
  br i1 %.not, label %.thread, label %15

.thread:                                          ; preds = %8
  %10 = tail call fastcc ptr @ar_force_convert_table(i64 noundef %0)
  br label %11

11:                                               ; preds = %.thread, %4
  %12 = add i64 %0, 24
  %13 = inttoptr i64 %12 to ptr
  %14 = tail call i32 @rb_st_update(ptr noundef nonnull %13, i64 noundef %1, ptr noundef %2, i64 noundef %3) #28
  br label %15

15:                                               ; preds = %8, %11
  %.1 = phi i32 [ %14, %11 ], [ %9, %8 ]
  ret i32 %.1
}